; Function Attrs: null_pointer_is_valid sspstrong uwtable
define internal fastcc range(i32 23, 30) i32 @dissect_rdm_pd_comms_status(ptr noundef %0, ptr noundef %1, i8 noundef zeroext %2) unnamed_addr #1 {
  %cond = icmp eq i8 %2, 33
  br i1 %cond, label %4, label %11

4:                                                ; preds = %3
  %5 = load i32, ptr @hf_rdm_pd_comms_status_short_msg, align 4
  %6 = tail call ptr @proto_tree_add_item(ptr noundef %1, i32 noundef %5, ptr noundef %0, i32 noundef 23, i32 noundef 2, i32 noundef 0)
  %7 = load i32, ptr @hf_rdm_pd_comms_status_len_mismatch, align 4
  %8 = tail call ptr @proto_tree_add_item(ptr noundef %1, i32 noundef %7, ptr noundef %0, i32 noundef 25, i32 noundef 2, i32 noundef 0)
  %9 = load i32, ptr @hf_rdm_pd_comms_status_csum_fail, align 4
  %10 = tail call ptr @proto_tree_add_item(ptr noundef %1, i32 noundef %9, ptr noundef %0, i32 noundef 27, i32 noundef 2, i32 noundef 0)
  br label %11

11:                                               ; preds = %3, %4
  %.0 = phi i32 [ 29, %4 ], [ 23, %3 ]
  ret i32 %.0
}